target datalayout = "e-m:e-p270:32:32-p271:32:32-p272:64:64-i64:64-i128:128-f80:128-n8:16:32:64-S128"
target triple = "x86_64-unknown-linux-gnu"

%struct.vhost_net = type { %struct.vhost_dev, [2 x %struct.vhost_virtqueue], i32, ptr }
%struct.vhost_dev = type { ptr, %struct.MemoryListener, %struct.MemoryListener, ptr, i32, ptr, i32, ptr, ptr, i32, i32, i32, i32, i64, i64, i64, i64, i64, i64, i8, i8, i64, ptr, ptr, ptr, ptr, %struct.anon, %struct.anon.1, %struct.IOMMUNotifier, ptr }
%struct.MemoryListener = type { ptr, ptr, ptr, ptr, ptr, ptr, ptr, ptr, ptr, ptr, ptr, ptr, ptr, ptr, ptr, ptr, ptr, i32, ptr, ptr, %union.anon, %union.anon.0 }
%union.anon = type { %struct.QTailQLink }
%struct.QTailQLink = type { ptr, ptr }
%union.anon.0 = type { %struct.QTailQLink }
%struct.anon = type { ptr, ptr }
%struct.anon.1 = type { ptr }
%struct.IOMMUNotifier = type { ptr, i32, i64, i64, i32, %struct.anon.2 }
%struct.anon.2 = type { ptr, ptr }
%struct.vhost_virtqueue = type { i32, i32, ptr, ptr, ptr, i32, i64, i32, i64, i32, i64, i32, %struct.EventNotifier, %struct.EventNotifier, %struct.EventNotifier, ptr }
%struct.EventNotifier = type { i32, i32, i8 }
%struct.VhostOps = type { i32, ptr, ptr, ptr, ptr, ptr, ptr, ptr, ptr, ptr, ptr, ptr, ptr, ptr, ptr, ptr, ptr, ptr, ptr, ptr, ptr, ptr, ptr, ptr, ptr, ptr, ptr, ptr, ptr, ptr, ptr, ptr, ptr, ptr, ptr, ptr, ptr, ptr, ptr, ptr, ptr, ptr, ptr, ptr, ptr, ptr, ptr, ptr, ptr }

@.str.6 = private unnamed_addr constant [27 x i8] c"../qemu/hw/net/vhost_net.c\00", align 1
@.str.7 = private unnamed_addr constant [51 x i8] c"vhost_ops->backend_type == VHOST_BACKEND_TYPE_USER\00", align 1
@__PRETTY_FUNCTION__.vhost_net_notify_migration_done = private unnamed_addr constant [64 x i8] c"int vhost_net_notify_migration_done(struct vhost_net *, char *)\00", align 1
@.str.8 = private unnamed_addr constant [32 x i8] c"vhost_ops->vhost_migration_done\00", align 1

; Function Attrs: nounwind sspstrong uwtable
define dso_local i32 @vhost_net_notify_migration_done(ptr noundef %net, ptr noundef %mac_addr) #0 {
entry:
  %net.addr = alloca ptr, align 8
  %mac_addr.addr = alloca ptr, align 8
  %vhost_ops = alloca ptr, align 8
  store ptr %net, ptr %net.addr, align 8
  store ptr %mac_addr, ptr %mac_addr.addr, align 8
  %0 = load ptr, ptr %net.addr, align 8
  %dev = getelementptr inbounds %struct.vhost_net, ptr %0, i32 0, i32 0
  %vhost_ops1 = getelementptr inbounds %struct.vhost_dev, ptr %dev, i32 0, i32 23
  %1 = load ptr, ptr %vhost_ops1, align 8
  store ptr %1, ptr %vhost_ops, align 8
  %2 = load ptr, ptr %vhost_ops, align 8
  %backend_type = getelementptr inbounds %struct.VhostOps, ptr %2, i32 0, i32 0
  %3 = load i32, ptr %backend_type, align 8
  %cmp = icmp eq i32 %3, 2
  br i1 %cmp, label %if.then, label %if.else

if.then:                                          ; preds = %entry
  br label %if.end

if.else:                                          ; preds = %entry
  call void @__assert_fail(ptr noundef @.str.7, ptr noundef @.str.6, i32 noundef 476, ptr noundef @__PRETTY_FUNCTION__.vhost_net_notify_migration_done) #8
  unreachable

if.end:                                           ; preds = %if.then
  %4 = load ptr, ptr %vhost_ops, align 8
  %vhost_migration_done = getelementptr inbounds %struct.VhostOps, ptr %4, i32 0, i32 29
  %5 = load ptr, ptr %vhost_migration_done, align 8
  %tobool = icmp ne ptr %5, null
  br i1 %tobool, label %if.then2, label %if.else3

if.then2:                                         ; preds = %if.end
  br label %if.end4

if.else3:                                         ; preds = %if.end
  call void @__assert_fail(ptr noundef @.str.8, ptr noundef @.str.6, i32 noundef 477, ptr noundef @__PRETTY_FUNCTION__.vhost_net_notify_migration_done) #8
  unreachable

if.end4:                                          ; preds = %if.then2
  %6 = load ptr, ptr %vhost_ops, align 8
  %vhost_migration_done5 = getelementptr inbounds %struct.VhostOps, ptr %6, i32 0, i32 29
  %7 = load ptr, ptr %vhost_migration_done5, align 8
  %8 = load ptr, ptr %net.addr, align 8
  %dev6 = getelementptr inbounds %struct.vhost_net, ptr %8, i32 0, i32 0
  %9 = load ptr, ptr %mac_addr.addr, align 8
  %call = call i32 %7(ptr noundef %dev6, ptr noundef %9)
  ret i32 %call
}