; Function Attrs: nounwind sspstrong uwtable
define dso_local i32 @vhost_net_notify_migration_done(ptr noundef %net, ptr noundef %mac_addr) local_unnamed_addr #0 {
entry:
  %vhost_ops1 = getelementptr inbounds nuw i8, ptr %net, i64 528
  %0 = load ptr, ptr %vhost_ops1, align 8
  %1 = load i32, ptr %0, align 8
  %cmp = icmp eq i32 %1, 2
  br i1 %cmp, label %if.end, label %if.else

if.else:                                          ; preds = %entry
  tail call void @__assert_fail(ptr noundef nonnull @.str.7, ptr noundef nonnull @.str.6, i32 noundef 476, ptr noundef nonnull @__PRETTY_FUNCTION__.vhost_net_notify_migration_done) #14
  unreachable

if.end:                                           ; preds = %entry
  %vhost_migration_done = getelementptr inbounds nuw i8, ptr %0, i64 232
  %2 = load ptr, ptr %vhost_migration_done, align 8
  %tobool.not = icmp eq ptr %2, null
  br i1 %tobool.not, label %if.else3, label %if.end4

if.else3:                                         ; preds = %if.end
  tail call void @__assert_fail(ptr noundef nonnull @.str.8, ptr noundef nonnull @.str.6, i32 noundef 477, ptr noundef nonnull @__PRETTY_FUNCTION__.vhost_net_notify_migration_done) #14
  unreachable

if.end4:                                          ; preds = %if.end
  %call = tail call i32 %2(ptr noundef nonnull %net, ptr noundef %mac_addr) #11
  ret i32 %call
}